; Function Attrs: mustprogress nofree nosync nounwind willreturn memory(read, inaccessiblemem: none) uwtable
define dso_local noundef zeroext i1 @_ZN7VString9wildmatchERKNSt7__cxx1112basic_stringIcSt11char_traitsIcESaIcEEES7_(ptr noundef nonnull readonly align 8 captures(none) dereferenceable(32) %0, ptr noundef nonnull readonly align 8 captures(none) dereferenceable(32) %1) #5 align 2 {
  %3 = load ptr, ptr %0, align 8, !tbaa !19
  %4 = load ptr, ptr %1, align 8, !tbaa !19
  br label %5

5:                                                ; preds = %17, %2
  %.013.i = phi ptr [ %3, %2 ], [ %18, %17 ]
  %.0.i = phi ptr [ %4, %2 ], [ %19, %17 ]
  %6 = load i8, ptr %.0.i, align 1, !tbaa !13
  switch i8 %6, label %7 [
    i8 0, label %20
    i8 42, label %9
  ]

7:                                                ; preds = %5
  %8 = load i8, ptr %.013.i, align 1, !tbaa !13
  %.not19.i = icmp eq i8 %8, %6
  %.not20.i = icmp eq i8 %6, 63
  %or.cond.i = or i1 %.not20.i, %.not19.i
  br i1 %or.cond.i, label %17, label %_ZN7VString9wildmatchEPKcS1_.exit

9:                                                ; preds = %5
  %10 = getelementptr inbounds nuw i8, ptr %.0.i, i64 1
  %11 = load i8, ptr %10, align 1, !tbaa !13
  %.not18.i = icmp eq i8 %11, 0
  br i1 %.not18.i, label %_ZN7VString9wildmatchEPKcS1_.exit, label %.preheader.i

.preheader.i:                                     ; preds = %9, %13
  %.1.i = phi ptr [ %14, %13 ], [ %.013.i, %9 ]
  %12 = tail call noundef zeroext i1 @_ZN7VString10wildmatchiEPKcS1_(ptr noundef %.1.i, ptr noundef nonnull %10)
  br i1 %12, label %_ZN7VString9wildmatchEPKcS1_.exit, label %13

13:                                               ; preds = %.preheader.i
  %14 = getelementptr inbounds nuw i8, ptr %.1.i, i64 1
  %15 = load i8, ptr %14, align 1, !tbaa !13
  %16 = icmp eq i8 %15, 0
  br i1 %16, label %_ZN7VString9wildmatchEPKcS1_.exit, label %.preheader.i, !llvm.loop !14

17:                                               ; preds = %7
  %18 = getelementptr inbounds nuw i8, ptr %.013.i, i64 1
  %19 = getelementptr inbounds nuw i8, ptr %.0.i, i64 1
  br label %5, !llvm.loop !16

20:                                               ; preds = %5
  %21 = load i8, ptr %.013.i, align 1, !tbaa !13
  %22 = icmp eq i8 %21, 0
  br label %_ZN7VString9wildmatchEPKcS1_.exit

_ZN7VString9wildmatchEPKcS1_.exit:                ; preds = %7, %.preheader.i, %13, %9, %20
  %.014.i = phi i1 [ %22, %20 ], [ true, %9 ], [ %12, %13 ], [ %12, %.preheader.i ], [ false, %7 ]
  ret i1 %.014.i
}